target datalayout = "e-m:e-p270:32:32-p271:32:32-p272:64:64-i64:64-i128:128-f80:128-n8:16:32:64-S128"
target triple = "x86_64-pc-linux-gnu"

%struct.FunctionCallInfoBaseData = type { ptr, ptr, ptr, i32, i8, i16, [0 x %struct.NullableDatum] }
%struct.NullableDatum = type { i64, i8 }
%struct.Node = type { i32 }
%struct.SupportRequestSimplify = type { i32, ptr, ptr }
%struct.FuncExpr = type { %struct.Expr, i32, i32, i8, i8, i32, i32, i32, ptr, i32 }
%struct.Expr = type { i32 }
%struct.Const = type { %struct.Expr, i32, i32, i32, i32, i64, i8, i8, i32 }
%struct.List = type { i32, i32, i32, ptr, [0 x %union.ListCell] }
%union.ListCell = type { ptr }

; Function Attrs: inlinehint nounwind uwtable
define internal i64 @PointerGetDatum(ptr noundef %0) #2 {
  %2 = alloca ptr, align 8
  store ptr %0, ptr %2, align 8
  %3 = load ptr, ptr %2, align 8
  %4 = ptrtoint ptr %3 to i64
  ret i64 %4
}

; Function Attrs: inlinehint nounwind uwtable
define internal i32 @DatumGetInt32(i64 noundef %0) #2 {
  %2 = alloca i64, align 8
  store i64 %0, ptr %2, align 8
  %3 = load i64, ptr %2, align 8
  %4 = trunc i64 %3 to i32
  ret i32 %4
}

; Function Attrs: inlinehint nounwind uwtable
define internal ptr @list_nth_cell(ptr noundef %0, i32 noundef %1) #2 {
  %3 = alloca ptr, align 8
  %4 = alloca i32, align 4
  store ptr %0, ptr %3, align 8
  store i32 %1, ptr %4, align 4
  %5 = load ptr, ptr %3, align 8
  %6 = getelementptr inbounds nuw %struct.List, ptr %5, i32 0, i32 3
  %7 = load ptr, ptr %6, align 8
  %8 = load i32, ptr %4, align 4
  %9 = sext i32 %8 to i64
  %10 = getelementptr inbounds %union.ListCell, ptr %7, i64 %9
  ret ptr %10
}

; Function Attrs: inlinehint nounwind uwtable
define internal ptr @DatumGetPointer(i64 noundef %0) #2 {
  %2 = alloca i64, align 8
  store i64 %0, ptr %2, align 8
  %3 = load i64, ptr %2, align 8
  %4 = inttoptr i64 %3 to ptr
  ret ptr %4
}

; Function Attrs: nounwind uwtable
define dso_local i64 @varchar_support(ptr noundef %0) #0 {
  %2 = alloca ptr, align 8
  %3 = alloca ptr, align 8
  %4 = alloca ptr, align 8
  %5 = alloca ptr, align 8
  %6 = alloca ptr, align 8
  %7 = alloca ptr, align 8
  %8 = alloca ptr, align 8
  %9 = alloca i32, align 4
  %10 = alloca i32, align 4
  %11 = alloca i32, align 4
  %12 = alloca i32, align 4
  store ptr %0, ptr %2, align 8
  call void @llvm.lifetime.start.p0(i64 8, ptr %3) #8
  %13 = load ptr, ptr %2, align 8
  %14 = getelementptr inbounds nuw %struct.FunctionCallInfoBaseData, ptr %13, i32 0, i32 6
  %15 = getelementptr inbounds [0 x %struct.NullableDatum], ptr %14, i64 0, i64 0
  %16 = getelementptr inbounds nuw %struct.NullableDatum, ptr %15, i32 0, i32 0
  %17 = load i64, ptr %16, align 8
  %18 = call ptr @DatumGetPointer(i64 noundef %17)
  store ptr %18, ptr %3, align 8
  call void @llvm.lifetime.start.p0(i64 8, ptr %4) #8
  store ptr null, ptr %4, align 8
  %19 = load ptr, ptr %3, align 8
  %20 = getelementptr inbounds nuw %struct.Node, ptr %19, i32 0, i32 0
  %21 = load i32, ptr %20, align 4
  %22 = icmp eq i32 %21, 456
  br i1 %22, label %23, label %73

23:                                               ; preds = %1
  call void @llvm.lifetime.start.p0(i64 8, ptr %5) #8
  %24 = load ptr, ptr %3, align 8
  store ptr %24, ptr %5, align 8
  call void @llvm.lifetime.start.p0(i64 8, ptr %6) #8
  %25 = load ptr, ptr %5, align 8
  %26 = getelementptr inbounds nuw %struct.SupportRequestSimplify, ptr %25, i32 0, i32 2
  %27 = load ptr, ptr %26, align 8
  store ptr %27, ptr %6, align 8
  call void @llvm.lifetime.start.p0(i64 8, ptr %7) #8
  %28 = load ptr, ptr %6, align 8
  %29 = getelementptr inbounds nuw %struct.FuncExpr, ptr %28, i32 0, i32 8
  %30 = load ptr, ptr %29, align 8
  %31 = call ptr @list_nth_cell(ptr noundef %30, i32 noundef 1)
  %32 = load ptr, ptr %31, align 8
  store ptr %32, ptr %7, align 8
  %33 = load ptr, ptr %7, align 8
  %34 = getelementptr inbounds nuw %struct.Node, ptr %33, i32 0, i32 0
  %35 = load i32, ptr %34, align 4
  %36 = icmp eq i32 %35, 7
  br i1 %36, label %37, label %72

37:                                               ; preds = %23
  %38 = load ptr, ptr %7, align 8
  %39 = getelementptr inbounds nuw %struct.Const, ptr %38, i32 0, i32 6
  %40 = load i8, ptr %39, align 8, !range !6, !noundef !7
  %41 = trunc i8 %40 to i1
  br i1 %41, label %72, label %42

42:                                               ; preds = %37
  call void @llvm.lifetime.start.p0(i64 8, ptr %8) #8
  %43 = load ptr, ptr %6, align 8
  %44 = getelementptr inbounds nuw %struct.FuncExpr, ptr %43, i32 0, i32 8
  %45 = load ptr, ptr %44, align 8
  %46 = call ptr @list_nth_cell(ptr noundef %45, i32 noundef 0)
  %47 = load ptr, ptr %46, align 8
  store ptr %47, ptr %8, align 8
  call void @llvm.lifetime.start.p0(i64 4, ptr %9) #8
  %48 = load ptr, ptr %8, align 8
  %49 = call i32 @exprTypmod(ptr noundef %48)
  store i32 %49, ptr %9, align 4
  call void @llvm.lifetime.start.p0(i64 4, ptr %10) #8
  %50 = load ptr, ptr %7, align 8
  %51 = getelementptr inbounds nuw %struct.Const, ptr %50, i32 0, i32 5
  %52 = load i64, ptr %51, align 8
  %53 = call i32 @DatumGetInt32(i64 noundef %52)
  store i32 %53, ptr %10, align 4
  call void @llvm.lifetime.start.p0(i64 4, ptr %11) #8
  %54 = load i32, ptr %9, align 4
  %55 = sub i32 %54, 4
  store i32 %55, ptr %11, align 4
  call void @llvm.lifetime.start.p0(i64 4, ptr %12) #8
  %56 = load i32, ptr %10, align 4
  %57 = sub i32 %56, 4
  store i32 %57, ptr %12, align 4
  %58 = load i32, ptr %10, align 4
  %59 = icmp slt i32 %58, 0
  br i1 %59, label %67, label %60

60:                                               ; preds = %42
  %61 = load i32, ptr %9, align 4
  %62 = icmp sge i32 %61, 0
  br i1 %62, label %63, label %71

63:                                               ; preds = %60
  %64 = load i32, ptr %11, align 4
  %65 = load i32, ptr %12, align 4
  %66 = icmp sle i32 %64, %65
  br i1 %66, label %67, label %71

67:                                               ; preds = %63, %42
  %68 = load ptr, ptr %8, align 8
  %69 = load i32, ptr %10, align 4
  %70 = call ptr @relabel_to_typmod(ptr noundef %68, i32 noundef %69)
  store ptr %70, ptr %4, align 8
  br label %71

71:                                               ; preds = %67, %63, %60
  call void @llvm.lifetime.end.p0(i64 4, ptr %12) #8
  call void @llvm.lifetime.end.p0(i64 4, ptr %11) #8
  call void @llvm.lifetime.end.p0(i64 4, ptr %10) #8
  call void @llvm.lifetime.end.p0(i64 4, ptr %9) #8
  call void @llvm.lifetime.end.p0(i64 8, ptr %8) #8
  br label %72

72:                                               ; preds = %71, %37, %23
  call void @llvm.lifetime.end.p0(i64 8, ptr %7) #8
  call void @llvm.lifetime.end.p0(i64 8, ptr %6) #8
  call void @llvm.lifetime.end.p0(i64 8, ptr %5) #8
  br label %73

73:                                               ; preds = %72, %1
  %74 = load ptr, ptr %4, align 8
  %75 = call i64 @PointerGetDatum(ptr noundef %74)
  call void @llvm.lifetime.end.p0(i64 8, ptr %4) #8
  call void @llvm.lifetime.end.p0(i64 8, ptr %3) #8
  ret i64 %75
}