; Function Attrs: nounwind uwtable
define dso_local i64 @varchar_support(ptr noundef readonly captures(none) %0) local_unnamed_addr #0 {
  %2 = getelementptr inbounds nuw i8, ptr %0, i64 32
  %3 = load i64, ptr %2, align 8
  %4 = inttoptr i64 %3 to ptr
  %5 = load i32, ptr %4, align 4
  %6 = icmp eq i32 %5, 456
  br i1 %6, label %7, label %35

7:                                                ; preds = %1
  %8 = getelementptr inbounds nuw i8, ptr %4, i64 16
  %9 = load ptr, ptr %8, align 8
  %10 = getelementptr inbounds nuw i8, ptr %9, i64 32
  %11 = load ptr, ptr %10, align 8
  %12 = getelementptr i8, ptr %11, i64 16
  %.val = load ptr, ptr %12, align 8
  %13 = getelementptr inbounds nuw i8, ptr %.val, i64 8
  %14 = load ptr, ptr %13, align 8
  %15 = load i32, ptr %14, align 4
  %16 = icmp eq i32 %15, 7
  br i1 %16, label %17, label %35

17:                                               ; preds = %7
  %18 = getelementptr inbounds nuw i8, ptr %14, i64 32
  %19 = load i8, ptr %18, align 8, !range !9, !noundef !10
  %20 = trunc nuw i8 %19 to i1
  br i1 %20, label %35, label %21

21:                                               ; preds = %17
  %22 = load ptr, ptr %.val, align 8
  %23 = tail call i32 @exprTypmod(ptr noundef %22) #13
  %24 = getelementptr inbounds nuw i8, ptr %14, i64 24
  %25 = load i64, ptr %24, align 8
  %26 = trunc i64 %25 to i32
  %27 = icmp slt i32 %26, 0
  br i1 %27, label %32, label %28

28:                                               ; preds = %21
  %29 = add nsw i32 %26, -4
  %30 = add i32 %23, -4
  %31 = icmp slt i32 %23, 0
  %.not = icmp sgt i32 %30, %29
  %or.cond = or i1 %31, %.not
  br i1 %or.cond, label %35, label %32

32:                                               ; preds = %28, %21
  %33 = tail call ptr @relabel_to_typmod(ptr noundef %22, i32 noundef %26) #13
  %34 = ptrtoint ptr %33 to i64
  br label %35

35:                                               ; preds = %7, %17, %32, %28, %1
  %.0 = phi i64 [ 0, %1 ], [ 0, %17 ], [ 0, %7 ], [ %34, %32 ], [ 0, %28 ]
  ret i64 %.0
}